; ModuleID = '23/150.c'
source_filename = "23/150.c"
target datalayout = "e-m:e-p270:32:32-p271:32:32-p272:64:64-i64:64-f80:128-n8:16:32:64-S128"
target triple = "x86_64-pc-linux-gnu"

@.str = private unnamed_addr constant [4 x i8] c"%s \00", align 1
@.str.1 = private unnamed_addr constant [4 x i8] c"%s\0A\00", align 1

; Function Attrs: noinline nounwind uwtable
define dso_local void @main() #0 {
  %1 = alloca i8, align 1
  %2 = alloca [400 x i8], align 16
  %3 = alloca [40 x [20 x i8]], align 16
  %4 = alloca i32, align 4
  %5 = alloca i32, align 4
  %6 = alloca i32, align 4
  %7 = alloca i32, align 4
  store i32 0, i32* %4, align 4
  store i32 0, i32* %6, align 4
  store i32 0, i32* %7, align 4
  %8 = call i32 @getchar()
  %9 = trunc i32 %8 to i8
  store i8 %9, i8* %1, align 1
  br label %10

10:                                               ; preds = %14, %0
  %11 = load i8, i8* %1, align 1
  %12 = sext i8 %11 to i32
  %13 = icmp ne i32 %12, 10
  br i1 %13, label %14, label %23

14:                                               ; preds = %10
  %15 = load i8, i8* %1, align 1
  %16 = load i32, i32* %4, align 4
  %17 = sext i32 %16 to i64
  %18 = getelementptr inbounds [400 x i8], [400 x i8]* %2, i64 0, i64 %17
  store i8 %15, i8* %18, align 1
  %19 = load i32, i32* %4, align 4
  %20 = add nsw i32 %19, 1
  store i32 %20, i32* %4, align 4
  %21 = call i32 @getchar()
  %22 = trunc i32 %21 to i8
  store i8 %22, i8* %1, align 1
  br label %10

23:                                               ; preds = %10
  %24 = load i32, i32* %4, align 4
  %25 = sext i32 %24 to i64
  %26 = getelementptr inbounds [400 x i8], [400 x i8]* %2, i64 0, i64 %25
  store i8 32, i8* %26, align 1
  store i32 0, i32* %5, align 4
  br label %27

27:                                               ; preds = %61, %23
  %28 = load i32, i32* %5, align 4
  %29 = load i32, i32* %4, align 4
  %30 = icmp sle i32 %28, %29
  br i1 %30, label %31, label %64

31:                                               ; preds = %27
  %32 = load i32, i32* %5, align 4
  %33 = sext i32 %32 to i64
  %34 = getelementptr inbounds [400 x i8], [400 x i8]* %2, i64 0, i64 %33
  %35 = load i8, i8* %34, align 1
  %36 = load i32, i32* %6, align 4
  %37 = sext i32 %36 to i64
  %38 = getelementptr inbounds [40 x [20 x i8]], [40 x [20 x i8]]* %3, i64 0, i64 %37
  %39 = load i32, i32* %7, align 4
  %40 = sext i32 %39 to i64
  %41 = getelementptr inbounds [20 x i8], [20 x i8]* %38, i64 0, i64 %40
  store i8 %35, i8* %41, align 1
  %42 = load i32, i32* %7, align 4
  %43 = add nsw i32 %42, 1
  store i32 %43, i32* %7, align 4
  %44 = load i32, i32* %5, align 4
  %45 = sext i32 %44 to i64
  %46 = getelementptr inbounds [400 x i8], [400 x i8]* %2, i64 0, i64 %45
  %47 = load i8, i8* %46, align 1
  %48 = sext i8 %47 to i32
  %49 = icmp eq i32 %48, 32
  br i1 %49, label %50, label %60

50:                                               ; preds = %31
  %51 = load i32, i32* %6, align 4
  %52 = sext i32 %51 to i64
  %53 = getelementptr inbounds [40 x [20 x i8]], [40 x [20 x i8]]* %3, i64 0, i64 %52
  %54 = load i32, i32* %7, align 4
  %55 = sub nsw i32 %54, 1
  %56 = sext i32 %55 to i64
  %57 = getelementptr inbounds [20 x i8], [20 x i8]* %53, i64 0, i64 %56
  store i8 0, i8* %57, align 1
  %58 = load i32, i32* %6, align 4
  %59 = add nsw i32 %58, 1
  store i32 %59, i32* %6, align 4
  store i32 0, i32* %7, align 4
  br label %60

60:                                               ; preds = %50, %31
  br label %61

61:                                               ; preds = %60
  %62 = load i32, i32* %5, align 4
  %63 = add nsw i32 %62, 1
  store i32 %63, i32* %5, align 4
  br label %27

64:                                               ; preds = %27
  %65 = load i32, i32* %6, align 4
  %66 = sub nsw i32 %65, 1
  store i32 %66, i32* %4, align 4
  br label %67

67:                                               ; preds = %76, %64
  %68 = load i32, i32* %4, align 4
  %69 = icmp sgt i32 %68, 0
  br i1 %69, label %70, label %79

70:                                               ; preds = %67
  %71 = load i32, i32* %4, align 4
  %72 = sext i32 %71 to i64
  %73 = getelementptr inbounds [40 x [20 x i8]], [40 x [20 x i8]]* %3, i64 0, i64 %72
  %74 = getelementptr inbounds [20 x i8], [20 x i8]* %73, i64 0, i64 0
  %75 = call i32 (i8*, ...) @printf(i8* getelementptr inbounds ([4 x i8], [4 x i8]* @.str, i64 0, i64 0), i8* %74)
  br label %76

76:                                               ; preds = %70
  %77 = load i32, i32* %4, align 4
  %78 = add nsw i32 %77, -1
  store i32 %78, i32* %4, align 4
  br label %67

79:                                               ; preds = %67
  %80 = getelementptr inbounds [40 x [20 x i8]], [40 x [20 x i8]]* %3, i64 0, i64 0
  %81 = getelementptr inbounds [20 x i8], [20 x i8]* %80, i64 0, i64 0
  %82 = call i32 (i8*, ...) @printf(i8* getelementptr inbounds ([4 x i8], [4 x i8]* @.str.1, i64 0, i64 0), i8* %81)
  ret void
}

declare dso_local i32 @getchar() #1

declare dso_local i32 @printf(i8*, ...) #1


!llvm.module.flags = !{!0}
!llvm.ident = !{!1}

!0 = !{i32 1, !"wchar_size", i32 4}
!1 = !{!"clang version 10.0.0-4ubuntu1 "}
